ccopy_reg
_reconstructor
p0
(ccouchdb.client
Document
p1
c__builtin__
dict
p2
(dp3
V@context
p4
(dp5
Vbegin
p6
(dp7
V@id
p8
Vdpla:dateRangeStart
p9
sV@type
p10
Vxsd:date
p11
ssV@vocab
p12
Vhttp://purl.org/dc/terms/
p13
sVhasView
p14
Vedm:hasView
p15
sVname
p16
Vxsd:string
p17
sVsourceResource
p18
Vedm:sourceResource
p19
sVobject
p20
Vedm:object
p21
sVdpla
p22
Vhttp://dp.la/terms/
p23
sVcollection
p24
Vdpla:aggregation
p25
sVedm
p26
Vhttp://www.europeana.eu/schemas/edm/
p27
sVstate
p28
Vdpla:state
p29
sVaggregatedDigitalResource
p30
Vdpla:aggregatedDigitalResource
p31
sVcoordinates
p32
Vdpla:coordinates
p33
sVisShownAt
p34
Vedm:isShownAt
p35
sVstateLocatedIn
p36
Vdpla:stateLocatedIn
p37
sVend
p38
(dp39
V@id
p40
Vdpla:dateRangeEnd
p41
sV@type
p42
Vxsd:date
p43
ssVdataProvider
p44
Vedm:dataProvider
p45
sVoriginalRecord
p46
Vdpla:originalRecord
p47
sVprovider
p48
Vedm:provider
p49
sVLCSH
p50
Vhttp://id.loc.gov/authorities/subjects
p51
ssVdataProvider
p52
VThe Bancroft Library, University of California, Berkeley, Berkeley, CA 94720-6000, Phone: (510) 642-6481, Fax: (510) 642-7589, Email: bancref@library.berkeley.edu, URL: http://bancroft.berkeley.edu/
p53
sVoriginalRecord
p54
(dp55
Vfacet-oac-tab
p56
Vdigital item
p57
sVrelation-from
p58
Vhttp://www.oac.cdlib.org/findaid/ark:/13030/ft6k4007pc|Yoshiko Uchida photograph collection
p59
sVrelation
p60
(lp61
Vhttp://www.oac.cdlib.org/findaid/ark:/13030/ft6k4007pc
p62
aVhttp://bancroft.berkeley.edu/collections/jarda.html
p63
aVhb158005k9
p64
aVBANC PIC 1986.059--PIC
p65
aVhttp://www.oac.cdlib.org/findaid/ark:/13030/ft6k4007pc
p66
aVhttp://calisphere.universityofcalifornia.edu/
p67
aVhttp://bancroft.berkeley.edu/
p68
asVsort-title
p69
Vneighbor
p70
sVcampus
p71
(lp72
(dp73
V@id
p74
Vhttps://registry.cdlib.org/api/v1/campus/1/
p75
sVname
p76
VUC Berkeley
p77
sasVsubject
p78
(lp79
VYoshiko Uchida photograph collection
p80
aVJapanese American Relocation Digital Archive
p81
asVfacet-institution
p82
VUC Berkeley::Bancroft Library
p83
sVtitle
p84
VNeighbor
p85
sVoac4-tab
p86
VItems::image
p87
sVtype
p88
Vstill image
p89
sVthumbnail
p90
(dp91
VY
p92
I125
sVX
p93
I102
sVsrc
p94
Vhttp://content.cdlib.org/ark:/13030/ft009nb05r/thumbnail
p95
ssVreference-image
p96
(lp97
(dp98
VY
p99
I750
sVX
p100
I622
sVsrc
p101
Vhttp://content.cdlib.org/ark:/13030/ft009nb05r/FID3
p102
sa(dp103
VY
p104
I1500
sVX
p105
I1244
sVsrc
p106
Vhttp://content.cdlib.org/ark:/13030/ft009nb05r/FID4
p107
sasVhandle
p108
(lp109
Vhttp://ark.cdlib.org/ark:/13030/ft009nb05r
p110
aVBanc Pic 1986.059:124--PIC
p111
asVrepository
p112
(lp113
(dp114
V@id
p115
Vhttps://registry.cdlib.org/api/v1/repository/4/
p116
sVname
p117
VBancroft Library
p118
sasVformat
p119
Vmods
p120
sVinstitution-doublelist
p121
(lp122
VB::Bancroft Library::UC Berkeley
p123
aVU::UC Berkeley::Bancroft Library
p124
asVcollection
p125
(dp126
V@id
p127
Vhttps://registry.cdlib.org/api/v1/collection/23066
p128
sVname
p129
VUchida (Yoshiko) photograph collection
p130
ssVpublisher
p131
VThe Bancroft Library, University of California, Berkeley, Berkeley, CA 94720-6000, Phone: (510) 642-6481, Fax: (510) 642-7589, Email: bancref@library.berkeley.edu, URL: http://bancroft.berkeley.edu/
p132
sVrights
p133
(lp134
VTransmission or reproduction of materials protected by copyright beyond that allowed by fair use requires the written permission of the copyright owners. Works not in the public domain cannot be commercially exploited without permission of the copyright owner. Responsibility for any use rests exclusively with the user.
p135
aVThe Bancroft Library--assigned
p136
aVAll requests to reproduce, publish, quote from, or otherwise use collection materials must be submitted in writing to the Head of Public Services, The Bancroft Library, University of California, Berkeley 94720-6000. See: http://bancroft.berkeley.edu/reference/permissions.html
p137
aVUniversity of California, Berkeley, Berkeley, CA 94720-6000, Phone: (510) 642-6481, Fax: (510) 642-7589, Email: bancref@library.berkeley.edu
p138
asVinstitution-url
p139
Vhttp://bancroft.berkeley.edu/
p140
sVfacet-collection-order
p141
Vark:/13030/ft6k4007pc::099
p142
sVfacet-collection-title
p143
VYoshiko Uchida photograph collection
p144
sVfacet-type-tab
p145
Vimage
p146
sVdateStamp
p147
V2011-10-27
p148
sVidentifier
p149
(lp150
Vhttp://ark.cdlib.org/ark:/13030/ft009nb05r
p151
aVBanc Pic 1986.059:124--PIC
p152
asVfacet-onlineItems
p153
VItems online
p154
ssV_rev
p155
V10-de00625004adfd61cce6fa1f695874db
p156
sVingestDate
p157
V2014-06-13T21:49:28.594945
p158
sVingestionSequence
p159
I11
sVsourceResource
p160
(dp161
Vpublisher
p162
VThe Bancroft Library, University of California, Berkeley, Berkeley, CA 94720-6000, Phone: (510) 642-6481, Fax: (510) 642-7589, Email: bancref@library.berkeley.edu, URL: http://bancroft.berkeley.edu/
p163
sVrights
p164
(lp165
VTransmission or reproduction of materials protected by copyright beyond that allowed by fair use requires the written permission of the copyright owners. Works not in the public domain cannot be commercially exploited without permission of the copyright owner. Responsibility for any use rests exclusively with the user.
p166
aVThe Bancroft Library--assigned
p167
aVAll requests to reproduce, publish, quote from, or otherwise use collection materials must be submitted in writing to the Head of Public Services, The Bancroft Library, University of California, Berkeley 94720-6000. See: http://bancroft.berkeley.edu/reference/permissions.html
p168
aVUniversity of California, Berkeley, Berkeley, CA 94720-6000, Phone: (510) 642-6481, Fax: (510) 642-7589, Email: bancref@library.berkeley.edu
p169
asVformat
p170
Vmods
p171
sVtitle
p172
VNeighbor
p173
sVcollection
p174
(dp175
V@id
p176
Vhttps://registry.cdlib.org/api/v1/collection/23066
p177
sVname
p178
VUchida (Yoshiko) photograph collection
p179
ssVrelation
p180
(lp181
Vhttp://www.oac.cdlib.org/findaid/ark:/13030/ft6k4007pc
p182
aVhttp://bancroft.berkeley.edu/collections/jarda.html
p183
aVhb158005k9
p184
aVBANC PIC 1986.059--PIC
p185
aVhttp://www.oac.cdlib.org/findaid/ark:/13030/ft6k4007pc
p186
aVhttp://calisphere.universityofcalifornia.edu/
p187
aVhttp://bancroft.berkeley.edu/
p188
asVstateLocatedIn
p189
(lp190
(dp191
Vname
p192
VCalifornia
p193
sasVtype
p194
Vimage
p195
sVsubject
p196
(lp197
(dp198
Vname
p199
VYoshiko Uchida photograph collection
p200
sa(dp201
Vname
p202
VJapanese American Relocation Digital Archive
p203
sassVisShownAt
p204
Vhttp://ark.cdlib.org/ark:/13030/ft009nb05r
p205
sVingestType
p206
Vitem
p207
sV_id
p208
Vuchida-yoshiko-photograph-collection--http://ark.cdlib.org/ark:/13030/ft009nb05r
p209
sV@id
p210
Vhttp://dp.la/api/items/1099870472665cec9bb82ba4027e70f1
p211
sVid
p212
V1099870472665cec9bb82ba4027e70f1
p213
stp214
Rp215
.