ccopy_reg
_reconstructor
p0
(ccouchdb.client
Document
p1
c__builtin__
dict
p2
(dp3
V_id
p4
Vuchida-yoshiko-photograph-collection--http://ark.cdlib.org/ark:/13030/ft009nb05r
p5
sV@id
p6
Vhttp://dp.la/api/items/1099870472665cec9bb82ba4027e70f1
p7
sV_rev
p8
V10-de00625004adfd61cce6fa1f695874db
p9
sVingestDate
p10
V2014-06-13T21:49:28.594945
p11
sVingestionSequence
p12
I11
sVisShownAt
p13
Vhttp://ark.cdlib.org/ark:/13030/ft009nb05r
p14
sVsourceResource
p15
(dp16
Vpublisher
p17
VThe Bancroft Library, University of California, Berkeley, Berkeley, CA 94720-6000, Phone: (510) 642-6481, Fax: (510) 642-7589, Email: bancref@library.berkeley.edu, URL: http://bancroft.berkeley.edu/
p18
sVrights
p19
(lp20
VTransmission or reproduction of materials protected by copyright beyond that allowed by fair use requires the written permission of the copyright owners. Works not in the public domain cannot be commercially exploited without permission of the copyright owner. Responsibility for any use rests exclusively with the user.
p21
aVThe Bancroft Library--assigned
p22
aVAll requests to reproduce, publish, quote from, or otherwise use collection materials must be submitted in writing to the Head of Public Services, The Bancroft Library, University of California, Berkeley 94720-6000. See: http://bancroft.berkeley.edu/reference/permissions.html
p23
aVUniversity of California, Berkeley, Berkeley, CA 94720-6000, Phone: (510) 642-6481, Fax: (510) 642-7589, Email: bancref@library.berkeley.edu
p24
asVformat
p25
Vmods
p26
sVtitle
p27
VNeighbor
p28
sVcollection
p29
(lp30
(dp31
V@id
p32
Vhttps://registry.cdlib.org/api/v1/collection/23066
p33
sVname
p34
VUchida (Yoshiko) photograph collection
p35
sasVrelation
p36
(lp37
Vhttp://www.oac.cdlib.org/findaid/ark:/13030/ft6k4007pc
p38
aVhttp://bancroft.berkeley.edu/collections/jarda.html
p39
aVhb158005k9
p40
aVBANC PIC 1986.059--PIC
p41
aVhttp://www.oac.cdlib.org/findaid/ark:/13030/ft6k4007pc
p42
aVhttp://calisphere.universityofcalifornia.edu/
p43
aVhttp://bancroft.berkeley.edu/
p44
asVstateLocatedIn
p45
(lp46
(dp47
Vname
p48
VCalifornia
p49
sasVtype
p50
Vimage
p51
sVsubject
p52
(lp53
(dp54
Vname
p55
VYoshiko Uchida photograph collection
p56
sa(dp57
Vname
p58
VJapanese American Relocation Digital Archive
p59
sassV@context
p60
(dp61
Vbegin
p62
(dp63
V@id
p64
Vdpla:dateRangeStart
p65
sV@type
p66
Vxsd:date
p67
ssV@vocab
p68
Vhttp://purl.org/dc/terms/
p69
sVhasView
p70
Vedm:hasView
p71
sVname
p72
Vxsd:string
p73
sVobject
p74
Vedm:object
p75
sVdpla
p76
Vhttp://dp.la/terms/
p77
sVcollection
p78
Vdpla:aggregation
p79
sVedm
p80
Vhttp://www.europeana.eu/schemas/edm/
p81
sVend
p82
(dp83
V@id
p84
Vdpla:dateRangeEnd
p85
sV@type
p86
Vxsd:date
p87
ssVstate
p88
Vdpla:state
p89
sVaggregatedDigitalResource
p90
Vdpla:aggregatedDigitalResource
p91
sVcoordinates
p92
Vdpla:coordinates
p93
sVisShownAt
p94
Vedm:isShownAt
p95
sVstateLocatedIn
p96
Vdpla:stateLocatedIn
p97
sVsourceResource
p98
Vedm:sourceResource
p99
sVdataProvider
p100
Vedm:dataProvider
p101
sVoriginalRecord
p102
Vdpla:originalRecord
p103
sVprovider
p104
Vedm:provider
p105
sVLCSH
p106
Vhttp://id.loc.gov/authorities/subjects
p107
ssVingestType
p108
Vitem
p109
sVdataProvider
p110
VThe Bancroft Library, University of California, Berkeley, Berkeley, CA 94720-6000, Phone: (510) 642-6481, Fax: (510) 642-7589, Email: bancref@library.berkeley.edu, URL: http://bancroft.berkeley.edu/
p111
sVoriginalRecord
p112
(dp113
Vfacet-oac-tab
p114
Vdigital item
p115
sVrelation-from
p116
Vhttp://www.oac.cdlib.org/findaid/ark:/13030/ft6k4007pc|Yoshiko Uchida photograph collection
p117
sVrelation
p118
(lp119
Vhttp://www.oac.cdlib.org/findaid/ark:/13030/ft6k4007pc
p120
aVhttp://bancroft.berkeley.edu/collections/jarda.html
p121
aVhb158005k9
p122
aVBANC PIC 1986.059--PIC
p123
aVhttp://www.oac.cdlib.org/findaid/ark:/13030/ft6k4007pc
p124
aVhttp://calisphere.universityofcalifornia.edu/
p125
aVhttp://bancroft.berkeley.edu/
p126
asVsort-title
p127
Vneighbor
p128
sVcampus
p129
(lp130
(dp131
V@id
p132
Vhttps://registry.cdlib.org/api/v1/campus/1/
p133
sVname
p134
VUC Berkeley
p135
sasVsubject
p136
(lp137
VYoshiko Uchida photograph collection
p138
aVJapanese American Relocation Digital Archive
p139
asVfacet-institution
p140
VUC Berkeley::Bancroft Library
p141
sVtitle
p142
VNeighbor
p143
sVoac4-tab
p144
VItems::image
p145
sVtype
p146
Vstill image
p147
sVthumbnail
p148
(dp149
VY
p150
I125
sVX
p151
I102
sVsrc
p152
Vhttp://content.cdlib.org/ark:/13030/ft009nb05r/thumbnail
p153
ssVreference-image
p154
(lp155
(dp156
VY
p157
I750
sVX
p158
I622
sVsrc
p159
Vhttp://content.cdlib.org/ark:/13030/ft009nb05r/FID3
p160
sa(dp161
VY
p162
I1500
sVX
p163
I1244
sVsrc
p164
Vhttp://content.cdlib.org/ark:/13030/ft009nb05r/FID4
p165
sasVhandle
p166
(lp167
Vhttp://ark.cdlib.org/ark:/13030/ft009nb05r
p168
aVBanc Pic 1986.059:124--PIC
p169
asVrepository
p170
(lp171
(dp172
V@id
p173
Vhttps://registry.cdlib.org/api/v1/repository/4/
p174
sVname
p175
VBancroft Library
p176
sasVformat
p177
Vmods
p178
sVinstitution-doublelist
p179
(lp180
VB::Bancroft Library::UC Berkeley
p181
aVU::UC Berkeley::Bancroft Library
p182
asVcollection
p183
(dp184
V@id
p185
Vhttps://registry.cdlib.org/api/v1/collection/23066
p186
sVname
p187
VUchida (Yoshiko) photograph collection
p188
ssVpublisher
p189
VThe Bancroft Library, University of California, Berkeley, Berkeley, CA 94720-6000, Phone: (510) 642-6481, Fax: (510) 642-7589, Email: bancref@library.berkeley.edu, URL: http://bancroft.berkeley.edu/
p190
sVrights
p191
(lp192
VTransmission or reproduction of materials protected by copyright beyond that allowed by fair use requires the written permission of the copyright owners. Works not in the public domain cannot be commercially exploited without permission of the copyright owner. Responsibility for any use rests exclusively with the user.
p193
aVThe Bancroft Library--assigned
p194
aVAll requests to reproduce, publish, quote from, or otherwise use collection materials must be submitted in writing to the Head of Public Services, The Bancroft Library, University of California, Berkeley 94720-6000. See: http://bancroft.berkeley.edu/reference/permissions.html
p195
aVUniversity of California, Berkeley, Berkeley, CA 94720-6000, Phone: (510) 642-6481, Fax: (510) 642-7589, Email: bancref@library.berkeley.edu
p196
asVinstitution-url
p197
Vhttp://bancroft.berkeley.edu/
p198
sVfacet-collection-order
p199
Vark:/13030/ft6k4007pc::099
p200
sVfacet-collection-title
p201
VYoshiko Uchida photograph collection
p202
sVfacet-type-tab
p203
Vimage
p204
sVdateStamp
p205
V2011-10-27
p206
sVidentifier
p207
(lp208
Vhttp://ark.cdlib.org/ark:/13030/ft009nb05r
p209
aVBanc Pic 1986.059:124--PIC
p210
asVfacet-onlineItems
p211
VItems online
p212
ssVid
p213
V1099870472665cec9bb82ba4027e70f1
p214
stp215
Rp216
.